target datalayout = "e-m:e-p270:32:32-p271:32:32-p272:64:64-i64:64-i128:128-f80:128-n8:16:32:64-S128"
target triple = "x86_64-pc-linux-gnu"

@.str.151 = private unnamed_addr constant [8 x i8] c" - (%s)\00", align 1
@hf_gsm_a_dtap_clg_party_bcd_num = internal global i32 0, align 4

; Function Attrs: null_pointer_is_valid sspstrong uwtable
define internal zeroext i16 @de_clg_party_bcd_num(ptr noundef %0, ptr noundef %1, ptr noundef %2, i32 noundef %3, i32 noundef %4, ptr noundef %5, i32 noundef %6) #1 {
  %8 = alloca ptr, align 8
  %9 = alloca ptr, align 8
  %10 = alloca ptr, align 8
  %11 = alloca i32, align 4
  %12 = alloca i32, align 4
  %13 = alloca ptr, align 8
  %14 = alloca i32, align 4
  %15 = alloca ptr, align 8
  store ptr %0, ptr %8, align 8
  store ptr %1, ptr %9, align 8
  store ptr %2, ptr %10, align 8
  store i32 %3, ptr %11, align 4
  store i32 %4, ptr %12, align 4
  store ptr %5, ptr %13, align 8
  store i32 %6, ptr %14, align 4
  call void @llvm.lifetime.start.p0(i64 8, ptr %15) #7
  %16 = load ptr, ptr %8, align 8
  %17 = load ptr, ptr %9, align 8
  %18 = load ptr, ptr %10, align 8
  %19 = load i32, ptr %11, align 4
  %20 = load i32, ptr %12, align 4
  %21 = load i32, ptr @hf_gsm_a_dtap_clg_party_bcd_num, align 4
  %22 = call zeroext i16 @de_bcd_num(ptr noundef %16, ptr noundef %17, ptr noundef %18, i32 noundef %19, i32 noundef %20, i32 noundef %21, ptr noundef %15)
  %23 = load ptr, ptr %15, align 8
  %24 = icmp ne ptr %23, null
  br i1 %24, label %25, label %36

25:                                               ; preds = %7
  %26 = load ptr, ptr %13, align 8
  %27 = icmp ne ptr %26, null
  br i1 %27, label %28, label %36

28:                                               ; preds = %25
  %29 = load ptr, ptr %13, align 8
  %30 = load i32, ptr %14, align 4
  %31 = sext i32 %30 to i64
  %32 = load ptr, ptr %13, align 8
  %33 = call i64 @llvm.objectsize.i64.p0(ptr %32, i1 false, i1 true, i1 true)
  %34 = load ptr, ptr %15, align 8
  %35 = call i32 (ptr, i64, i32, i64, ptr, ...) @__snprintf_chk(ptr noundef %29, i64 noundef %31, i32 noundef 2, i64 noundef %33, ptr noundef @.str.151, ptr noundef %34)
  br label %36

36:                                               ; preds = %28, %25, %7
  %37 = load i32, ptr %12, align 4
  %38 = trunc i32 %37 to i16
  call void @llvm.lifetime.end.p0(i64 8, ptr %15) #7
  ret i16 %38
}