; Function Attrs: null_pointer_is_valid sspstrong uwtable
define internal noundef zeroext i16 @de_clg_party_bcd_num(ptr noundef %0, ptr noundef %1, ptr noundef %2, i32 noundef %3, i32 noundef %4, ptr noundef %5, i32 noundef %6) #1 {
  %8 = alloca ptr, align 8
  call void @llvm.lifetime.start.p0(i64 8, ptr nonnull %8) #8
  %9 = load i32, ptr @hf_gsm_a_dtap_clg_party_bcd_num, align 4
  call fastcc void @de_bcd_num(ptr noundef %0, ptr noundef %1, ptr noundef %2, i32 noundef %3, i32 noundef %4, i32 noundef %9, ptr noundef nonnull %8)
  %10 = load ptr, ptr %8, align 8
  %11 = icmp ne ptr %10, null
  %12 = icmp ne ptr %5, null
  %or.cond = and i1 %12, %11
  br i1 %or.cond, label %13, label %16

13:                                               ; preds = %7
  %14 = sext i32 %6 to i64
  %15 = call i32 (ptr, i64, i32, i64, ptr, ...) @__snprintf_chk(ptr noundef nonnull %5, i64 noundef %14, i32 noundef 2, i64 noundef -1, ptr noundef nonnull @.str.151, ptr noundef nonnull %10)
  br label %16

16:                                               ; preds = %13, %7
  %17 = trunc i32 %4 to i16
  call void @llvm.lifetime.end.p0(i64 8, ptr nonnull %8) #8
  ret i16 %17
}